# SymbolsHelper-Confirmed: 6.1.0 amd64 arm64 armel armhf i386 ppc64el riscv64 s390x
libPlasmaActivities.so.6 libplasmaactivities6 #MINVER#
* Build-Depends-Package: libplasmaactivities-dev
 _ZGVZN9QMetaType21registerConverterImplI5QListI12ActivityInfoE9QIterableI13QMetaSequenceEEEbSt8functionIFbPKvPvEES_S_E10unregister@Base 6.0.5
 _ZGVZN9QMetaType23registerMutableViewImplI5QListI12ActivityInfoE9QIterableI13QMetaSequenceEEEbSt8functionIFbPvS8_EES_S_E10unregister@Base 6.0.5
 _ZN11KActivities10Controller11addActivityERK7QString@Base 6.0.5
 _ZN11KActivities10Controller11qt_metacallEN11QMetaObject4CallEiPPv@Base 6.0.5
 _ZN11KActivities10Controller11qt_metacastEPKc@Base 6.0.5
 _ZN11KActivities10Controller12nextActivityEv@Base 6.0.5
 _ZN11KActivities10Controller12stopActivityERK7QString@Base 6.0.5
 _ZN11KActivities10Controller13startActivityERK7QString@Base 6.0.5
 _ZN11KActivities10Controller14removeActivityERK7QString@Base 6.0.5
 _ZN11KActivities10Controller15setActivityIconERK7QStringS3_@Base 6.0.5
 _ZN11KActivities10Controller15setActivityNameERK7QStringS3_@Base 6.0.5
 _ZN11KActivities10Controller16previousActivityEv@Base 6.0.5
 _ZN11KActivities10Controller16staticMetaObjectE@Base 6.0.5
 _ZN11KActivities10Controller18setCurrentActivityERK7QString@Base 6.0.5
 _ZN11KActivities10Controller22setActivityDescriptionERK7QStringS3_@Base 6.0.5
 _ZN11KActivities10ControllerC1EP7QObject@Base 6.0.5
 _ZN11KActivities10ControllerC2EP7QObject@Base 6.0.5
 _ZN11KActivities10ControllerD0Ev@Base 6.0.5
 _ZN11KActivities10ControllerD1Ev@Base 6.0.5
 _ZN11KActivities10ControllerD2Ev@Base 6.0.5
 _ZN11KActivities12versionMajorEv@Base 6.0.5
 _ZN11KActivities12versionMinorEv@Base 6.0.5
 _ZN11KActivities13versionStringEv@Base 6.0.5
 _ZN11KActivities14versionReleaseEv@Base 6.0.5
 _ZN11KActivities15ActivitiesModel11qt_metacallEN11QMetaObject4CallEiPPv@Base 6.0.5
 _ZN11KActivities15ActivitiesModel11qt_metacastEPKc@Base 6.0.5
 _ZN11KActivities15ActivitiesModel14setShownStatesERK5QListINS_4Info5StateEE@Base 6.0.5
 _ZN11KActivities15ActivitiesModel16staticMetaObjectE@Base 6.0.5
 _ZN11KActivities15ActivitiesModel18shownStatesChangedERK5QListINS_4Info5StateEE@Base 6.0.5
 _ZN11KActivities15ActivitiesModelC1E5QListINS_4Info5StateEEP7QObject@Base 6.0.5
 _ZN11KActivities15ActivitiesModelC1EP7QObject@Base 6.0.5
 _ZN11KActivities15ActivitiesModelC2E5QListINS_4Info5StateEEP7QObject@Base 6.0.5
 _ZN11KActivities15ActivitiesModelC2EP7QObject@Base 6.0.5
 _ZN11KActivities15ActivitiesModelD0Ev@Base 6.0.5
 _ZN11KActivities15ActivitiesModelD1Ev@Base 6.0.5
 _ZN11KActivities15ActivitiesModelD2Ev@Base 6.0.5
 _ZN11KActivities16ResourceInstance14notifyAccessedERK4QUrlRK7QString@Base 6.0.5
 _ZN11KActivities4Info11iconChangedERK7QString@Base 6.0.5
 _ZN11KActivities4Info11infoChangedEv@Base 6.0.5
 _ZN11KActivities4Info11nameChangedERK7QString@Base 6.0.5
 _ZN11KActivities4Info11qt_metacallEN11QMetaObject4CallEiPPv@Base 6.0.5
 _ZN11KActivities4Info11qt_metacastEPKc@Base 6.0.5
 _ZN11KActivities4Info12stateChangedENS0_5StateE@Base 6.0.5
 _ZN11KActivities4Info16isCurrentChangedEb@Base 6.0.5
 _ZN11KActivities4Info16staticMetaObjectE@Base 6.0.5
 _ZN11KActivities4Info18descriptionChangedERK7QString@Base 6.0.5
 _ZN11KActivities4Info5addedEv@Base 6.0.5
 _ZN11KActivities4Info7removedEv@Base 6.0.5
 _ZN11KActivities4Info7startedEv@Base 6.0.5
 _ZN11KActivities4Info7stoppedEv@Base 6.0.5
 _ZN11KActivities4InfoC1ERK7QStringP7QObject@Base 6.0.5
 _ZN11KActivities4InfoC2ERK7QStringP7QObject@Base 6.0.5
 _ZN11KActivities4InfoD0Ev@Base 6.0.5
 _ZN11KActivities4InfoD1Ev@Base 6.0.5
 _ZN11KActivities4InfoD2Ev@Base 6.0.5
 _ZN11KActivities7versionEv@Base 6.0.5
 _ZN11KActivities8Consumer11qt_metacallEN11QMetaObject4CallEiPPv@Base 6.0.5
 _ZN11KActivities8Consumer11qt_metacastEPKc@Base 6.0.5
 _ZN11KActivities8Consumer13activityAddedERK7QString@Base 6.0.5
 _ZN11KActivities8Consumer13serviceStatusEv@Base 6.0.5
 _ZN11KActivities8Consumer15activityRemovedERK7QString@Base 6.0.5
 _ZN11KActivities8Consumer16staticMetaObjectE@Base 6.0.5
 _ZN11KActivities8Consumer17activitiesChangedERK5QListI7QStringE@Base 6.0.5
 _ZN11KActivities8Consumer20serviceStatusChangedENS0_13ServiceStatusE@Base 6.0.5
 _ZN11KActivities8Consumer22currentActivityChangedERK7QString@Base 6.0.5
 _ZN11KActivities8Consumer24runningActivitiesChangedERK5QListI7QStringE@Base 6.0.5
 _ZN11KActivities8ConsumerC1EP7QObject@Base 6.0.5
 _ZN11KActivities8ConsumerC2EP7QObject@Base 6.0.5
 _ZN11KActivities8ConsumerD0Ev@Base 6.0.5
 _ZN11KActivities8ConsumerD1Ev@Base 6.0.5
 _ZN11KActivities8ConsumerD2Ev@Base 6.0.5
 _ZN13QMetaSequence12MetaSequenceI5QListI12ActivityInfoEE5valueE@Base 6.0.5
 _ZNK11KActivities10Controller10metaObjectEv@Base 6.0.5
 _ZNK11KActivities15ActivitiesModel10headerDataEiN2Qt11OrientationEi@Base 6.0.5
 _ZNK11KActivities15ActivitiesModel10metaObjectEv@Base 6.0.5
 _ZNK11KActivities15ActivitiesModel11shownStatesEv@Base 6.0.5
 _ZNK11KActivities15ActivitiesModel4dataERK11QModelIndexi@Base 6.0.5
 _ZNK11KActivities15ActivitiesModel8rowCountERK11QModelIndex@Base 6.0.5
 _ZNK11KActivities15ActivitiesModel9roleNamesEv@Base 6.0.5
 _ZNK11KActivities4Info10metaObjectEv@Base 6.0.5
 _ZNK11KActivities4Info11descriptionEv@Base 6.0.5
 _ZNK11KActivities4Info12availabilityEv@Base 6.0.5
 _ZNK11KActivities4Info2idEv@Base 6.0.5
 _ZNK11KActivities4Info3uriEv@Base 6.0.5
 _ZNK11KActivities4Info4iconEv@Base 6.0.5
 _ZNK11KActivities4Info4nameEv@Base 6.0.5
 _ZNK11KActivities4Info5stateEv@Base 6.0.5
 _ZNK11KActivities4Info7isValidEv@Base 6.0.5
 _ZNK11KActivities4Info9isCurrentEv@Base 6.0.5
 _ZNK11KActivities8Consumer10activitiesENS_4Info5StateE@Base 6.0.5
 _ZNK11KActivities8Consumer10activitiesEv@Base 6.0.5
 _ZNK11KActivities8Consumer10metaObjectEv@Base 6.0.5
 _ZNK11KActivities8Consumer15currentActivityEv@Base 6.0.5
 _ZNK11KActivities8Consumer17runningActivitiesEv@Base 6.0.5
 _ZTIN11KActivities10ControllerE@Base 6.0.5
 _ZTIN11KActivities15ActivitiesModelE@Base 6.0.5
 _ZTIN11KActivities4InfoE@Base 6.0.5
 _ZTIN11KActivities8ConsumerE@Base 6.0.5
 (arch=armel riscv64)_ZTIN9__gnu_cxx7__mutexE@Base 6.1.0
 (arch=armel riscv64)_ZTISt11_Mutex_baseILN9__gnu_cxx12_Lock_policyE1EE@Base 6.1.0
 (arch=!armel !riscv64)_ZTISt11_Mutex_baseILN9__gnu_cxx12_Lock_policyE2EE@Base 6.1.0
 (arch=armel riscv64)_ZTISt16_Sp_counted_baseILN9__gnu_cxx12_Lock_policyE1EE@Base 6.1.0
 (arch=!armel !riscv64)_ZTISt16_Sp_counted_baseILN9__gnu_cxx12_Lock_policyE2EE@Base 6.1.0
 (arch=armel armhf)_ZTISt19_Sp_make_shared_tag@Base 6.1.0
 _ZTIZN9QMetaType17registerConverterI5QListI12ActivityInfoE9QIterableI13QMetaSequenceEN9QtPrivate33QSequentialIterableConvertFunctorIS3_EEEEbT1_EUlPKvPvE_@Base 6.0.5
 _ZTIZN9QMetaType19registerMutableViewI5QListI12ActivityInfoE9QIterableI13QMetaSequenceEN9QtPrivate37QSequentialIterableMutableViewFunctorIS3_EEEEbT1_EUlPvSB_E_@Base 6.0.5
 _ZTSN11KActivities10ControllerE@Base 6.0.5
 _ZTSN11KActivities15ActivitiesModelE@Base 6.0.5
 _ZTSN11KActivities4InfoE@Base 6.0.5
 _ZTSN11KActivities8ConsumerE@Base 6.0.5
 (arch=armel riscv64)_ZTSN9__gnu_cxx7__mutexE@Base 6.1.0
 (arch=armel riscv64)_ZTSSt11_Mutex_baseILN9__gnu_cxx12_Lock_policyE1EE@Base 6.1.0
 (arch=!armel !riscv64)_ZTSSt11_Mutex_baseILN9__gnu_cxx12_Lock_policyE2EE@Base 6.1.0
 (arch=armel riscv64)_ZTSSt16_Sp_counted_baseILN9__gnu_cxx12_Lock_policyE1EE@Base 6.1.0
 (arch=!armel !riscv64)_ZTSSt16_Sp_counted_baseILN9__gnu_cxx12_Lock_policyE2EE@Base 6.1.0
 _ZTSSt19_Sp_make_shared_tag@Base 6.0.5
 (arch=armel riscv64)_ZTSSt23_Sp_counted_ptr_inplaceIN11KActivities4InfoESaIvELN9__gnu_cxx12_Lock_policyE1EE@Base 6.1.0
 (arch=!armel !riscv64)_ZTSSt23_Sp_counted_ptr_inplaceIN11KActivities4InfoESaIvELN9__gnu_cxx12_Lock_policyE2EE@Base 6.1.0
 _ZTSZN9QMetaType17registerConverterI5QListI12ActivityInfoE9QIterableI13QMetaSequenceEN9QtPrivate33QSequentialIterableConvertFunctorIS3_EEEEbT1_EUlPKvPvE_@Base 6.0.5
 _ZTSZN9QMetaType19registerMutableViewI5QListI12ActivityInfoE9QIterableI13QMetaSequenceEN9QtPrivate37QSequentialIterableMutableViewFunctorIS3_EEEEbT1_EUlPvSB_E_@Base 6.0.5
 _ZTVN11KActivities10ControllerE@Base 6.0.5
 _ZTVN11KActivities15ActivitiesModelE@Base 6.0.5
 _ZTVN11KActivities4InfoE@Base 6.0.5
 _ZTVN11KActivities8ConsumerE@Base 6.0.5
 (optional=templinst)_ZZN9QMetaType21registerConverterImplI5QListI12ActivityInfoE9QIterableI13QMetaSequenceEEEbSt8functionIFbPKvPvEES_S_E10unregister@Base 6.0.5
 (optional=templinst)_ZZN9QMetaType23registerMutableViewImplI5QListI12ActivityInfoE9QIterableI13QMetaSequenceEEEbSt8functionIFbPvS8_EES_S_E10unregister@Base 6.0.5
 _ZZNSt19_Sp_make_shared_tag5_S_tiEvE5__tag@Base 6.0.5
